; Function Attrs: nounwind uwtable
define void @php_srand(i64 noundef %0) local_unnamed_addr #0 {
  %2 = load ptr, ptr getelementptr inbounds (%struct._zend_random_globals, ptr @random_globals, i64 0, i32 2), align 8
  %3 = load i8, ptr getelementptr inbounds (%struct._zend_random_globals, ptr @random_globals, i64 0, i32 3), align 8
  %4 = and i8 %3, 1
  %.not.i.i = icmp eq i8 %4, 0
  br i1 %.not.i.i, label %5, label %php_mt_srand.exit

5:                                                ; preds = %1
  tail call void @php_random_mt19937_seed_default(ptr noundef %2) #13
  store i8 1, ptr getelementptr inbounds (%struct._zend_random_globals, ptr @random_globals, i64 0, i32 3), align 8
  br label %php_mt_srand.exit

php_mt_srand.exit:                                ; preds = %1, %5
  %6 = trunc i64 %0 to i32
  tail call void @php_random_mt19937_seed32(ptr noundef %2, i32 noundef %6) #13
  ret void
}